; Function Attrs: mustprogress uwtable
define hidden void @_ZN2cv11bioinspired17BasicRetinaFilter32_horizontalCausalFilter_addInputEPKfPfjj(ptr noundef nonnull readonly align 8 captures(none) dereferenceable(168) %0, ptr noundef %1, ptr noundef %2, i32 noundef %3, i32 noundef %4) local_unnamed_addr #3 align 2 personality ptr @__gxx_personality_v0 {
  %6 = alloca %"class.cv::Range", align 4
  %7 = alloca %"class.cv::bioinspired::BasicRetinaFilter::Parallel_horizontalCausalFilter_addInput", align 8
  call void @llvm.lifetime.start.p0(i64 8, ptr nonnull %6) #19
  store i32 %3, ptr %6, align 4, !tbaa !71
  %8 = getelementptr inbounds nuw i8, ptr %6, i64 4
  store i32 %4, ptr %8, align 4, !tbaa !73
  call void @llvm.lifetime.start.p0(i64 40, ptr nonnull %7) #19
  %9 = getelementptr inbounds nuw i8, ptr %0, i64 32
  %10 = load i64, ptr %9, align 8, !tbaa !17
  %11 = trunc i64 %10 to i32
  %12 = getelementptr inbounds nuw i8, ptr %0, i64 156
  %13 = load float, ptr %12, align 4, !tbaa !65
  %14 = getelementptr inbounds nuw i8, ptr %0, i64 160
  %15 = load float, ptr %14, align 8, !tbaa !84
  store ptr getelementptr inbounds nuw inrange(-16, 24) (i8, ptr @_ZTVN2cv11bioinspired17BasicRetinaFilter40Parallel_horizontalCausalFilter_addInputE, i64 16), ptr %7, align 8, !tbaa !13
  %16 = getelementptr inbounds nuw i8, ptr %7, i64 8
  store ptr %1, ptr %16, align 8, !tbaa !85
  %17 = getelementptr inbounds nuw i8, ptr %7, i64 16
  store ptr %2, ptr %17, align 8, !tbaa !87
  %18 = getelementptr inbounds nuw i8, ptr %7, i64 24
  store i32 %3, ptr %18, align 8, !tbaa !88
  %19 = getelementptr inbounds nuw i8, ptr %7, i64 28
  store i32 %11, ptr %19, align 4, !tbaa !89
  %20 = getelementptr inbounds nuw i8, ptr %7, i64 32
  store float %13, ptr %20, align 8, !tbaa !90
  %21 = getelementptr inbounds nuw i8, ptr %7, i64 36
  store float %15, ptr %21, align 4, !tbaa !91
  invoke void @_ZN2cv13parallel_for_ERKNS_5RangeERKNS_16ParallelLoopBodyEd(ptr noundef nonnull align 4 dereferenceable(8) %6, ptr noundef nonnull align 8 dereferenceable(8) %7, double noundef -1.000000e+00)
          to label %22 unwind label %23

22:                                               ; preds = %5
  call void @_ZN2cv16ParallelLoopBodyD2Ev(ptr noundef nonnull align 8 dereferenceable(40) %7) #19
  call void @llvm.lifetime.end.p0(i64 40, ptr nonnull %7) #19
  call void @llvm.lifetime.end.p0(i64 8, ptr nonnull %6) #19
  ret void

23:                                               ; preds = %5
  %24 = landingpad { ptr, i32 }
          cleanup
  call void @_ZN2cv16ParallelLoopBodyD2Ev(ptr noundef nonnull align 8 dereferenceable(40) %7) #19
  call void @llvm.lifetime.end.p0(i64 40, ptr nonnull %7) #19
  call void @llvm.lifetime.end.p0(i64 8, ptr nonnull %6) #19
  resume { ptr, i32 } %24
}